target datalayout = "e-m:e-p270:32:32-p271:32:32-p272:64:64-i64:64-i128:128-f80:128-n8:16:32:64-S128"
target triple = "x86_64-pc-linux-gnu"

%"class.std::__cxx11::basic_string" = type { %"struct.std::__cxx11::basic_string<char>::_Alloc_hider", i64, %union.anon }
%"struct.std::__cxx11::basic_string<char>::_Alloc_hider" = type { ptr }
%union.anon = type { i64, [8 x i8] }
%"class.duckdb_apache::thrift::TBase" = type { ptr }
%"class.duckdb_parquet::AesGcmV1" = type <{ %"class.duckdb_apache::thrift::TBase", %"class.std::__cxx11::basic_string", %"class.std::__cxx11::basic_string", i8, %"struct.duckdb_parquet::_AesGcmV1__isset", [6 x i8] }>
%"struct.duckdb_parquet::_AesGcmV1__isset" = type { i8 }
%"class.duckdb_parquet::AesGcmCtrV1" = type <{ %"class.duckdb_apache::thrift::TBase", %"class.std::__cxx11::basic_string", %"class.std::__cxx11::basic_string", i8, %"struct.duckdb_parquet::_AesGcmCtrV1__isset", [6 x i8] }>
%"struct.duckdb_parquet::_AesGcmCtrV1__isset" = type { i8 }
%"class.duckdb_parquet::EncryptionAlgorithm" = type <{ %"class.duckdb_apache::thrift::TBase", %"class.duckdb_parquet::AesGcmV1", %"class.duckdb_parquet::AesGcmCtrV1", %"struct.duckdb_parquet::_EncryptionAlgorithm__isset", [7 x i8] }>
%"struct.duckdb_parquet::_EncryptionAlgorithm__isset" = type { i8 }

; Function Attrs: mustprogress uwtable
define available_externally noundef nonnull align 8 dereferenceable(32) ptr @_ZNSt7__cxx1112basic_stringIcSt11char_traitsIcESaIcEE6assignERKS4_(ptr noundef nonnull align 8 dereferenceable(32) %0, ptr noundef nonnull align 8 dereferenceable(32) %1) #2 align 2 {
  %3 = alloca ptr, align 8
  %4 = alloca ptr, align 8
  store ptr %0, ptr %3, align 8, !tbaa !40
  store ptr %1, ptr %4, align 8, !tbaa !40
  %5 = load ptr, ptr %3, align 8
  %6 = load ptr, ptr %4, align 8, !tbaa !40
  call void @_ZNSt7__cxx1112basic_stringIcSt11char_traitsIcESaIcEE9_M_assignERKS4_(ptr noundef nonnull align 8 dereferenceable(32) %5, ptr noundef nonnull align 8 dereferenceable(32) %6)
  ret ptr %5
}

; Function Attrs: mustprogress uwtable
define available_externally noundef nonnull align 8 dereferenceable(32) ptr @_ZNSt7__cxx1112basic_stringIcSt11char_traitsIcESaIcEEaSERKS4_(ptr noundef nonnull align 8 dereferenceable(32) %0, ptr noundef nonnull align 8 dereferenceable(32) %1) #2 align 2 {
  %3 = alloca ptr, align 8
  %4 = alloca ptr, align 8
  store ptr %0, ptr %3, align 8, !tbaa !40
  store ptr %1, ptr %4, align 8, !tbaa !40
  %5 = load ptr, ptr %3, align 8
  %6 = load ptr, ptr %4, align 8, !tbaa !40
  %7 = call noundef nonnull align 8 dereferenceable(32) ptr @_ZNSt7__cxx1112basic_stringIcSt11char_traitsIcESaIcEE6assignERKS4_(ptr noundef nonnull align 8 dereferenceable(32) %5, ptr noundef nonnull align 8 dereferenceable(32) %6)
  ret ptr %7
}

; Function Attrs: mustprogress uwtable
define noundef nonnull align 8 dereferenceable(74) ptr @_ZN14duckdb_parquet11AesGcmCtrV1aSERKS0_(ptr noundef nonnull align 8 dereferenceable(74) %0, ptr noundef nonnull align 8 dereferenceable(74) %1) #2 align 2 {
  %3 = alloca ptr, align 8
  %4 = alloca ptr, align 8
  store ptr %0, ptr %3, align 8, !tbaa !602
  store ptr %1, ptr %4, align 8, !tbaa !602
  %5 = load ptr, ptr %3, align 8
  %6 = load ptr, ptr %4, align 8, !tbaa !602
  %7 = getelementptr inbounds nuw %"class.duckdb_parquet::AesGcmCtrV1", ptr %6, i32 0, i32 1
  %8 = getelementptr inbounds nuw %"class.duckdb_parquet::AesGcmCtrV1", ptr %5, i32 0, i32 1
  %9 = call noundef nonnull align 8 dereferenceable(32) ptr @_ZNSt7__cxx1112basic_stringIcSt11char_traitsIcESaIcEEaSERKS4_(ptr noundef nonnull align 8 dereferenceable(32) %8, ptr noundef nonnull align 8 dereferenceable(32) %7)
  %10 = load ptr, ptr %4, align 8, !tbaa !602
  %11 = getelementptr inbounds nuw %"class.duckdb_parquet::AesGcmCtrV1", ptr %10, i32 0, i32 2
  %12 = getelementptr inbounds nuw %"class.duckdb_parquet::AesGcmCtrV1", ptr %5, i32 0, i32 2
  %13 = call noundef nonnull align 8 dereferenceable(32) ptr @_ZNSt7__cxx1112basic_stringIcSt11char_traitsIcESaIcEEaSERKS4_(ptr noundef nonnull align 8 dereferenceable(32) %12, ptr noundef nonnull align 8 dereferenceable(32) %11)
  %14 = load ptr, ptr %4, align 8, !tbaa !602
  %15 = getelementptr inbounds nuw %"class.duckdb_parquet::AesGcmCtrV1", ptr %14, i32 0, i32 3
  %16 = load i8, ptr %15, align 8, !tbaa !604, !range !46, !noundef !47
  %17 = trunc i8 %16 to i1
  %18 = getelementptr inbounds nuw %"class.duckdb_parquet::AesGcmCtrV1", ptr %5, i32 0, i32 3
  %19 = zext i1 %17 to i8
  store i8 %19, ptr %18, align 8, !tbaa !604
  %20 = load ptr, ptr %4, align 8, !tbaa !602
  %21 = getelementptr inbounds nuw %"class.duckdb_parquet::AesGcmCtrV1", ptr %20, i32 0, i32 4
  %22 = getelementptr inbounds nuw %"class.duckdb_parquet::AesGcmCtrV1", ptr %5, i32 0, i32 4
  call void @llvm.memcpy.p0.p0.i64(ptr align 1 %22, ptr align 1 %21, i64 1, i1 false), !tbaa.struct !111
  ret ptr %5
}

; Function Attrs: mustprogress uwtable
define noundef nonnull align 8 dereferenceable(74) ptr @_ZN14duckdb_parquet8AesGcmV1aSERKS0_(ptr noundef nonnull align 8 dereferenceable(74) %0, ptr noundef nonnull align 8 dereferenceable(74) %1) #2 align 2 {
  %3 = alloca ptr, align 8
  %4 = alloca ptr, align 8
  store ptr %0, ptr %3, align 8, !tbaa !594
  store ptr %1, ptr %4, align 8, !tbaa !594
  %5 = load ptr, ptr %3, align 8
  %6 = load ptr, ptr %4, align 8, !tbaa !594
  %7 = getelementptr inbounds nuw %"class.duckdb_parquet::AesGcmV1", ptr %6, i32 0, i32 1
  %8 = getelementptr inbounds nuw %"class.duckdb_parquet::AesGcmV1", ptr %5, i32 0, i32 1
  %9 = call noundef nonnull align 8 dereferenceable(32) ptr @_ZNSt7__cxx1112basic_stringIcSt11char_traitsIcESaIcEEaSERKS4_(ptr noundef nonnull align 8 dereferenceable(32) %8, ptr noundef nonnull align 8 dereferenceable(32) %7)
  %10 = load ptr, ptr %4, align 8, !tbaa !594
  %11 = getelementptr inbounds nuw %"class.duckdb_parquet::AesGcmV1", ptr %10, i32 0, i32 2
  %12 = getelementptr inbounds nuw %"class.duckdb_parquet::AesGcmV1", ptr %5, i32 0, i32 2
  %13 = call noundef nonnull align 8 dereferenceable(32) ptr @_ZNSt7__cxx1112basic_stringIcSt11char_traitsIcESaIcEEaSERKS4_(ptr noundef nonnull align 8 dereferenceable(32) %12, ptr noundef nonnull align 8 dereferenceable(32) %11)
  %14 = load ptr, ptr %4, align 8, !tbaa !594
  %15 = getelementptr inbounds nuw %"class.duckdb_parquet::AesGcmV1", ptr %14, i32 0, i32 3
  %16 = load i8, ptr %15, align 8, !tbaa !596, !range !46, !noundef !47
  %17 = trunc i8 %16 to i1
  %18 = getelementptr inbounds nuw %"class.duckdb_parquet::AesGcmV1", ptr %5, i32 0, i32 3
  %19 = zext i1 %17 to i8
  store i8 %19, ptr %18, align 8, !tbaa !596
  %20 = load ptr, ptr %4, align 8, !tbaa !594
  %21 = getelementptr inbounds nuw %"class.duckdb_parquet::AesGcmV1", ptr %20, i32 0, i32 4
  %22 = getelementptr inbounds nuw %"class.duckdb_parquet::AesGcmV1", ptr %5, i32 0, i32 4
  call void @llvm.memcpy.p0.p0.i64(ptr align 1 %22, ptr align 1 %21, i64 1, i1 false), !tbaa.struct !111
  ret ptr %5
}

; Function Attrs: mustprogress uwtable
define noundef nonnull align 8 dereferenceable(169) ptr @_ZN14duckdb_parquet19EncryptionAlgorithmaSERKS0_(ptr noundef nonnull align 8 dereferenceable(169) %0, ptr noundef nonnull align 8 dereferenceable(169) %1) #2 align 2 {
  %3 = alloca ptr, align 8
  %4 = alloca ptr, align 8
  store ptr %0, ptr %3, align 8, !tbaa !610
  store ptr %1, ptr %4, align 8, !tbaa !610
  %5 = load ptr, ptr %3, align 8
  %6 = load ptr, ptr %4, align 8, !tbaa !610
  %7 = getelementptr inbounds nuw %"class.duckdb_parquet::EncryptionAlgorithm", ptr %6, i32 0, i32 1
  %8 = getelementptr inbounds nuw %"class.duckdb_parquet::EncryptionAlgorithm", ptr %5, i32 0, i32 1
  %9 = call noundef nonnull align 8 dereferenceable(74) ptr @_ZN14duckdb_parquet8AesGcmV1aSERKS0_(ptr noundef nonnull align 8 dereferenceable(74) %8, ptr noundef nonnull align 8 dereferenceable(74) %7)
  %10 = load ptr, ptr %4, align 8, !tbaa !610
  %11 = getelementptr inbounds nuw %"class.duckdb_parquet::EncryptionAlgorithm", ptr %10, i32 0, i32 2
  %12 = getelementptr inbounds nuw %"class.duckdb_parquet::EncryptionAlgorithm", ptr %5, i32 0, i32 2
  %13 = call noundef nonnull align 8 dereferenceable(74) ptr @_ZN14duckdb_parquet11AesGcmCtrV1aSERKS0_(ptr noundef nonnull align 8 dereferenceable(74) %12, ptr noundef nonnull align 8 dereferenceable(74) %11)
  %14 = load ptr, ptr %4, align 8, !tbaa !610
  %15 = getelementptr inbounds nuw %"class.duckdb_parquet::EncryptionAlgorithm", ptr %14, i32 0, i32 3
  %16 = getelementptr inbounds nuw %"class.duckdb_parquet::EncryptionAlgorithm", ptr %5, i32 0, i32 3
  call void @llvm.memcpy.p0.p0.i64(ptr align 8 %16, ptr align 8 %15, i64 1, i1 false), !tbaa.struct !111
  ret ptr %5
}