; Function Attrs: mustprogress uwtable
define noundef nonnull align 8 dereferenceable(169) ptr @_ZN14duckdb_parquet19EncryptionAlgorithmaSERKS0_(ptr noundef nonnull returned align 8 dereferenceable(169) %0, ptr noundef nonnull align 8 dereferenceable(169) %1) local_unnamed_addr #2 align 2 {
  %3 = getelementptr inbounds nuw i8, ptr %1, i64 16
  %4 = getelementptr inbounds nuw i8, ptr %0, i64 16
  tail call void @_ZNSt7__cxx1112basic_stringIcSt11char_traitsIcESaIcEE9_M_assignERKS4_(ptr noundef nonnull align 8 dereferenceable(32) %4, ptr noundef nonnull align 8 dereferenceable(32) %3)
  %5 = getelementptr inbounds nuw i8, ptr %1, i64 48
  %6 = getelementptr inbounds nuw i8, ptr %0, i64 48
  tail call void @_ZNSt7__cxx1112basic_stringIcSt11char_traitsIcESaIcEE9_M_assignERKS4_(ptr noundef nonnull align 8 dereferenceable(32) %6, ptr noundef nonnull align 8 dereferenceable(32) %5)
  %7 = getelementptr inbounds nuw i8, ptr %1, i64 80
  %8 = load i8, ptr %7, align 8, !tbaa !762, !range !137, !noundef !138
  %9 = getelementptr inbounds nuw i8, ptr %0, i64 80
  store i8 %8, ptr %9, align 8, !tbaa !762
  %10 = getelementptr inbounds nuw i8, ptr %1, i64 81
  %11 = getelementptr inbounds nuw i8, ptr %0, i64 81
  %12 = load i8, ptr %10, align 1, !tbaa !38
  store i8 %12, ptr %11, align 1, !tbaa !38
  %13 = getelementptr inbounds nuw i8, ptr %1, i64 96
  %14 = getelementptr inbounds nuw i8, ptr %0, i64 96
  tail call void @_ZNSt7__cxx1112basic_stringIcSt11char_traitsIcESaIcEE9_M_assignERKS4_(ptr noundef nonnull align 8 dereferenceable(32) %14, ptr noundef nonnull align 8 dereferenceable(32) %13)
  %15 = getelementptr inbounds nuw i8, ptr %1, i64 128
  %16 = getelementptr inbounds nuw i8, ptr %0, i64 128
  tail call void @_ZNSt7__cxx1112basic_stringIcSt11char_traitsIcESaIcEE9_M_assignERKS4_(ptr noundef nonnull align 8 dereferenceable(32) %16, ptr noundef nonnull align 8 dereferenceable(32) %15)
  %17 = getelementptr inbounds nuw i8, ptr %1, i64 160
  %18 = load i8, ptr %17, align 8, !tbaa !766, !range !137, !noundef !138
  %19 = getelementptr inbounds nuw i8, ptr %0, i64 160
  store i8 %18, ptr %19, align 8, !tbaa !766
  %20 = getelementptr inbounds nuw i8, ptr %1, i64 161
  %21 = getelementptr inbounds nuw i8, ptr %0, i64 161
  %22 = load i8, ptr %20, align 1, !tbaa !38
  store i8 %22, ptr %21, align 1, !tbaa !38
  %23 = getelementptr inbounds nuw i8, ptr %1, i64 168
  %24 = getelementptr inbounds nuw i8, ptr %0, i64 168
  %25 = load i8, ptr %23, align 8, !tbaa !38
  store i8 %25, ptr %24, align 8, !tbaa !38
  ret ptr %0
}